target datalayout = "e-m:e-p270:32:32-p271:32:32-p272:64:64-i64:64-i128:128-f80:128-n8:16:32:64-S128"
target triple = "x86_64-unknown-linux-gnu"

%"class.std::shared_ptr" = type { %"class.std::__shared_ptr" }
%"class.std::__shared_ptr" = type { ptr, %"class.std::__shared_count" }
%"class.std::__shared_count" = type { ptr }
%"class.std::enable_shared_from_this" = type { %"class.std::weak_ptr" }
%"class.std::weak_ptr" = type { %"class.std::__weak_ptr" }
%"class.std::__weak_ptr" = type { ptr, %"class.std::__weak_count" }
%"class.std::__weak_count" = type { ptr }
%"class.absl::lts_20230802::AnyInvocable" = type { %"class.absl::lts_20230802::internal_any_invocable::Impl" }
%"class.absl::lts_20230802::internal_any_invocable::Impl" = type { %"class.absl::lts_20230802::internal_any_invocable::CoreImpl" }
%"class.absl::lts_20230802::internal_any_invocable::CoreImpl" = type { %"union.absl::lts_20230802::internal_any_invocable::TypeErasedState", ptr, ptr }
%"union.absl::lts_20230802::internal_any_invocable::TypeErasedState" = type { %struct.anon }
%struct.anon = type { ptr, i64 }
%"class.grpc_event_engine::experimental::PollEventHandle" = type { %"class.grpc_event_engine::experimental::EventHandle", %"class.absl::lts_20230802::Mutex", %"struct.std::atomic.0", i32, i32, %"class.grpc_event_engine::experimental::PollPoller::HandlesList", %"class.grpc_event_engine::experimental::PollPoller::HandlesList", ptr, %"class.std::shared_ptr", i8, i8, i8, i8, i8, i32, %"class.absl::lts_20230802::Status", %"class.grpc_event_engine::experimental::AnyInvocableClosure", ptr, ptr, ptr, [8 x i8] }
%"class.grpc_event_engine::experimental::EventHandle" = type { ptr }
%"class.absl::lts_20230802::Mutex" = type { %"struct.std::atomic" }
%"struct.std::atomic" = type { %"struct.std::__atomic_base" }
%"struct.std::__atomic_base" = type { i64 }
%"struct.std::atomic.0" = type { %"struct.std::__atomic_base.1" }
%"struct.std::__atomic_base.1" = type { i32 }
%"class.grpc_event_engine::experimental::PollPoller::HandlesList" = type { ptr, ptr, ptr }
%"class.absl::lts_20230802::Status" = type { i64 }
%"class.grpc_event_engine::experimental::AnyInvocableClosure" = type { %"class.grpc_event_engine::experimental::EventEngine::Closure", [8 x i8], %"class.absl::lts_20230802::AnyInvocable" }
%"class.grpc_event_engine::experimental::EventEngine::Closure" = type { ptr }
%"class.grpc_event_engine::experimental::PollPoller" = type <{ %"class.grpc_event_engine::experimental::PosixEventPoller", %"class.std::enable_shared_from_this", %"class.absl::lts_20230802::Mutex", ptr, i8, i8, i8, i8, i32, ptr, %"class.std::unique_ptr", i8, [7 x i8] }>
%"class.grpc_event_engine::experimental::PosixEventPoller" = type { %"class.grpc_event_engine::experimental::Poller", %"class.grpc_event_engine::experimental::Forkable" }
%"class.grpc_event_engine::experimental::Poller" = type { ptr }
%"class.grpc_event_engine::experimental::Forkable" = type { ptr }
%"class.std::unique_ptr" = type { %"struct.std::__uniq_ptr_data" }
%"struct.std::__uniq_ptr_data" = type { %"class.std::__uniq_ptr_impl" }
%"class.std::__uniq_ptr_impl" = type { %"class.std::tuple" }
%"class.std::tuple" = type { %"struct.std::_Tuple_impl" }
%"struct.std::_Tuple_impl" = type { %"struct.std::_Head_base.3" }
%"struct.std::_Head_base.3" = type { ptr }

; Function Attrs: mustprogress nounwind uwtable
define linkonce_odr noundef nonnull align 8 dereferenceable(24) ptr @_ZN17grpc_event_engine12experimental15PollEventHandle20PollerHandlesListPosEv(ptr noundef nonnull align 16 dereferenceable(200) %this) #4 comdat align 2 {
entry:
  %this.addr = alloca ptr, align 8
  store ptr %this, ptr %this.addr, align 8
  %this1 = load ptr, ptr %this.addr, align 8
  %poller_handles_list_ = getelementptr inbounds %"class.grpc_event_engine::experimental::PollEventHandle", ptr %this1, i32 0, i32 6
  ret ptr %poller_handles_list_
}

; Function Attrs: mustprogress uwtable
define void @_ZN17grpc_event_engine12experimental10PollPoller26PollerHandlesListAddHandleEPNS0_15PollEventHandleE(ptr noundef nonnull align 8 dereferenceable(73) %this, ptr noundef %handle) #5 align 2 {
entry:
  %this.addr = alloca ptr, align 8
  %handle.addr = alloca ptr, align 8
  store ptr %this, ptr %this.addr, align 8
  store ptr %handle, ptr %handle.addr, align 8
  %this1 = load ptr, ptr %this.addr, align 8
  %poll_handles_list_head_ = getelementptr inbounds %"class.grpc_event_engine::experimental::PollPoller", ptr %this1, i32 0, i32 9
  %0 = load ptr, ptr %poll_handles_list_head_, align 8
  %1 = load ptr, ptr %handle.addr, align 8
  %call = call noundef nonnull align 8 dereferenceable(24) ptr @_ZN17grpc_event_engine12experimental15PollEventHandle20PollerHandlesListPosEv(ptr noundef nonnull align 16 dereferenceable(200) %1)
  %next = getelementptr inbounds %"class.grpc_event_engine::experimental::PollPoller::HandlesList", ptr %call, i32 0, i32 1
  store ptr %0, ptr %next, align 8
  %2 = load ptr, ptr %handle.addr, align 8
  %call2 = call noundef nonnull align 8 dereferenceable(24) ptr @_ZN17grpc_event_engine12experimental15PollEventHandle20PollerHandlesListPosEv(ptr noundef nonnull align 16 dereferenceable(200) %2)
  %prev = getelementptr inbounds %"class.grpc_event_engine::experimental::PollPoller::HandlesList", ptr %call2, i32 0, i32 2
  store ptr null, ptr %prev, align 8
  %poll_handles_list_head_3 = getelementptr inbounds %"class.grpc_event_engine::experimental::PollPoller", ptr %this1, i32 0, i32 9
  %3 = load ptr, ptr %poll_handles_list_head_3, align 8
  %cmp = icmp ne ptr %3, null
  br i1 %cmp, label %if.then, label %if.end

if.then:                                          ; preds = %entry
  %4 = load ptr, ptr %handle.addr, align 8
  %poll_handles_list_head_4 = getelementptr inbounds %"class.grpc_event_engine::experimental::PollPoller", ptr %this1, i32 0, i32 9
  %5 = load ptr, ptr %poll_handles_list_head_4, align 8
  %call5 = call noundef nonnull align 8 dereferenceable(24) ptr @_ZN17grpc_event_engine12experimental15PollEventHandle20PollerHandlesListPosEv(ptr noundef nonnull align 16 dereferenceable(200) %5)
  %prev6 = getelementptr inbounds %"class.grpc_event_engine::experimental::PollPoller::HandlesList", ptr %call5, i32 0, i32 2
  store ptr %4, ptr %prev6, align 8
  br label %if.end

if.end:                                           ; preds = %if.then, %entry
  %6 = load ptr, ptr %handle.addr, align 8
  %poll_handles_list_head_7 = getelementptr inbounds %"class.grpc_event_engine::experimental::PollPoller", ptr %this1, i32 0, i32 9
  store ptr %6, ptr %poll_handles_list_head_7, align 8
  %num_poll_handles_ = getelementptr inbounds %"class.grpc_event_engine::experimental::PollPoller", ptr %this1, i32 0, i32 8
  %7 = load i32, ptr %num_poll_handles_, align 4
  %inc = add nsw i32 %7, 1
  store i32 %inc, ptr %num_poll_handles_, align 4
  ret void
}