; Function Attrs: mustprogress nofree norecurse nosync nounwind willreturn memory(write, argmem: readwrite, inaccessiblemem: none) uwtable
define void @_ZN17grpc_event_engine12experimental10PollPoller26PollerHandlesListAddHandleEPNS0_15PollEventHandleE(ptr nocapture noundef nonnull align 8 dereferenceable(73) %this, ptr noundef %handle) local_unnamed_addr #10 align 2 {
entry:
  %poll_handles_list_head_ = getelementptr inbounds i8, ptr %this, i64 56
  %0 = load ptr, ptr %poll_handles_list_head_, align 8
  %next = getelementptr inbounds i8, ptr %handle, i64 64
  store ptr %0, ptr %next, align 8
  %prev = getelementptr inbounds i8, ptr %handle, i64 72
  store ptr null, ptr %prev, align 8
  %1 = load ptr, ptr %poll_handles_list_head_, align 8
  %cmp.not = icmp eq ptr %1, null
  br i1 %cmp.not, label %if.end, label %if.then

if.then:                                          ; preds = %entry
  %prev6 = getelementptr inbounds i8, ptr %1, i64 72
  store ptr %handle, ptr %prev6, align 8
  br label %if.end

if.end:                                           ; preds = %if.then, %entry
  store ptr %handle, ptr %poll_handles_list_head_, align 8
  %num_poll_handles_ = getelementptr inbounds i8, ptr %this, i64 52
  %2 = load i32, ptr %num_poll_handles_, align 4
  %inc = add nsw i32 %2, 1
  store i32 %inc, ptr %num_poll_handles_, align 4
  ret void
}